target datalayout = "e-m:e-p270:32:32-p271:32:32-p272:64:64-i64:64-i128:128-f80:128-n8:16:32:64-S128"
target triple = "x86_64-pc-linux-gnu"

%"struct.(anonymous namespace)::CFGBlockInfo" = type <{ %"class.(anonymous namespace)::FactSet", %"class.(anonymous namespace)::FactSet", %"class.llvm::ImmutableMap", %"class.llvm::ImmutableMap", %"class.clang::SourceLocation", %"class.clang::SourceLocation", i32, i8, [3 x i8] }>
%"class.(anonymous namespace)::FactSet" = type { %"class.llvm::SmallVector.137" }
%"class.llvm::SmallVector.137" = type { %"class.llvm::SmallVectorImpl.138", %"struct.llvm::SmallVectorStorage.142" }
%"class.llvm::SmallVectorImpl.138" = type { %"class.llvm::SmallVectorTemplateBase.139" }
%"class.llvm::SmallVectorTemplateBase.139" = type { %"class.llvm::SmallVectorTemplateCommon.140" }
%"class.llvm::SmallVectorTemplateCommon.140" = type { %"class.llvm::SmallVectorBase.141" }
%"class.llvm::SmallVectorBase.141" = type { ptr, i64, i64 }
%"struct.llvm::SmallVectorStorage.142" = type { [8 x i8] }
%"class.llvm::ImmutableMap" = type { %"class.llvm::IntrusiveRefCntPtr" }
%"class.llvm::IntrusiveRefCntPtr" = type { ptr }
%"class.clang::SourceLocation" = type { i32 }
%"class.llvm::ImutAVLTree" = type { ptr, ptr, ptr, ptr, ptr, i32, [4 x i8], %"struct.std::pair.115", i32, i32 }
%"struct.std::pair.115" = type <{ ptr, i32, [4 x i8] }>

; Function Attrs: mustprogress nounwind uwtable
define linkonce_odr hidden noundef ptr @_ZNK4llvm25SmallVectorTemplateCommonItvE10getFirstElEv(ptr noundef nonnull align 8 dereferenceable(24) %0) #0 comdat align 2 {
  %2 = alloca ptr, align 8
  store ptr %0, ptr %2, align 8
  %3 = load ptr, ptr %2, align 8
  %4 = getelementptr inbounds i8, ptr %3, i64 24
  ret ptr %4
}

; Function Attrs: mustprogress nounwind uwtable
define linkonce_odr hidden void @_ZN4llvm11ImutAVLTreeINS_16ImutKeyValueInfoIPKN5clang9NamedDeclEjEEE7releaseEv(ptr noundef nonnull align 8 dereferenceable(72) %0) #0 comdat align 2 {
  %2 = alloca ptr, align 8
  store ptr %0, ptr %2, align 8
  %3 = load ptr, ptr %2, align 8
  %4 = getelementptr inbounds nuw %"class.llvm::ImutAVLTree", ptr %3, i32 0, i32 9
  %5 = load i32, ptr %4, align 4
  %6 = add i32 %5, -1
  store i32 %6, ptr %4, align 4
  %7 = icmp eq i32 %6, 0
  br i1 %7, label %8, label %9

8:                                                ; preds = %1
  call void @_ZN4llvm11ImutAVLTreeINS_16ImutKeyValueInfoIPKN5clang9NamedDeclEjEEE7destroyEv(ptr noundef nonnull align 8 dereferenceable(72) %3)
  br label %9

9:                                                ; preds = %8, %1
  ret void
}

; Function Attrs: mustprogress nounwind uwtable
define linkonce_odr hidden noundef zeroext i1 @_ZNK4llvm25SmallVectorTemplateCommonItvE7isSmallEv(ptr noundef nonnull align 8 dereferenceable(24) %0) #0 comdat align 2 {
  %2 = alloca ptr, align 8
  store ptr %0, ptr %2, align 8
  %3 = load ptr, ptr %2, align 8
  %4 = getelementptr inbounds nuw %"class.llvm::SmallVectorBase.141", ptr %3, i32 0, i32 0
  %5 = load ptr, ptr %4, align 8
  %6 = call noundef ptr @_ZNK4llvm25SmallVectorTemplateCommonItvE10getFirstElEv(ptr noundef nonnull align 8 dereferenceable(24) %3)
  %7 = icmp eq ptr %5, %6
  ret i1 %7
}

; Function Attrs: mustprogress nounwind uwtable
define linkonce_odr hidden void @_ZN4llvm22IntrusiveRefCntPtrInfoINS_11ImutAVLTreeINS_16ImutKeyValueInfoIPKN5clang9NamedDeclEjEEEEE7releaseEPS8_(ptr noundef %0) #0 comdat align 2 {
  %2 = alloca ptr, align 8
  store ptr %0, ptr %2, align 8
  %3 = load ptr, ptr %2, align 8
  call void @_ZN4llvm11ImutAVLTreeINS_16ImutKeyValueInfoIPKN5clang9NamedDeclEjEEE7releaseEv(ptr noundef nonnull align 8 dereferenceable(72) %3)
  ret void
}

; Function Attrs: mustprogress nounwind uwtable
define linkonce_odr hidden void @_ZN4llvm15SmallVectorImplItED2Ev(ptr noundef nonnull align 8 dereferenceable(24) %0) unnamed_addr #0 comdat align 2 {
  %2 = alloca ptr, align 8
  store ptr %0, ptr %2, align 8
  %3 = load ptr, ptr %2, align 8
  %4 = call noundef zeroext i1 @_ZNK4llvm25SmallVectorTemplateCommonItvE7isSmallEv(ptr noundef nonnull align 8 dereferenceable(24) %3)
  br i1 %4, label %7, label %5

5:                                                ; preds = %1
  %6 = call noundef ptr @_ZN4llvm25SmallVectorTemplateCommonItvE5beginEv(ptr noundef nonnull align 8 dereferenceable(24) %3)
  call void @free(ptr noundef %6) #13
  br label %7

7:                                                ; preds = %5, %1
  ret void
}

; Function Attrs: mustprogress nounwind uwtable
define linkonce_odr hidden void @_ZN4llvm23SmallVectorTemplateBaseItLb1EE13destroy_rangeEPtS2_(ptr noundef %0, ptr noundef %1) #0 comdat align 2 {
  %3 = alloca ptr, align 8
  %4 = alloca ptr, align 8
  store ptr %0, ptr %3, align 8
  store ptr %1, ptr %4, align 8
  ret void
}

; Function Attrs: mustprogress nounwind uwtable
define linkonce_odr hidden noundef ptr @_ZN4llvm25SmallVectorTemplateCommonItvE3endEv(ptr noundef nonnull align 8 dereferenceable(24) %0) #0 comdat align 2 {
  %2 = alloca ptr, align 8
  store ptr %0, ptr %2, align 8
  %3 = load ptr, ptr %2, align 8
  %4 = call noundef ptr @_ZN4llvm25SmallVectorTemplateCommonItvE5beginEv(ptr noundef nonnull align 8 dereferenceable(24) %3)
  %5 = call noundef i64 @_ZNK4llvm15SmallVectorBaseImE4sizeEv(ptr noundef nonnull align 8 dereferenceable(24) %3)
  %6 = getelementptr inbounds i16, ptr %4, i64 %5
  ret ptr %6
}

; Function Attrs: mustprogress nounwind uwtable
define linkonce_odr hidden noundef ptr @_ZN4llvm25SmallVectorTemplateCommonItvE5beginEv(ptr noundef nonnull align 8 dereferenceable(24) %0) #0 comdat align 2 {
  %2 = alloca ptr, align 8
  store ptr %0, ptr %2, align 8
  %3 = load ptr, ptr %2, align 8
  %4 = getelementptr inbounds nuw %"class.llvm::SmallVectorBase.141", ptr %3, i32 0, i32 0
  %5 = load ptr, ptr %4, align 8
  ret ptr %5
}

; Function Attrs: mustprogress nounwind uwtable
define linkonce_odr hidden void @_ZN4llvm18IntrusiveRefCntPtrINS_11ImutAVLTreeINS_16ImutKeyValueInfoIPKN5clang9NamedDeclEjEEEEE7releaseEv(ptr noundef nonnull align 8 dereferenceable(8) %0) #0 comdat align 2 {
  %2 = alloca ptr, align 8
  store ptr %0, ptr %2, align 8
  %3 = load ptr, ptr %2, align 8
  %4 = getelementptr inbounds nuw %"class.llvm::IntrusiveRefCntPtr", ptr %3, i32 0, i32 0
  %5 = load ptr, ptr %4, align 8
  %6 = icmp ne ptr %5, null
  br i1 %6, label %7, label %10

7:                                                ; preds = %1
  %8 = getelementptr inbounds nuw %"class.llvm::IntrusiveRefCntPtr", ptr %3, i32 0, i32 0
  %9 = load ptr, ptr %8, align 8
  call void @_ZN4llvm22IntrusiveRefCntPtrInfoINS_11ImutAVLTreeINS_16ImutKeyValueInfoIPKN5clang9NamedDeclEjEEEEE7releaseEPS8_(ptr noundef %9)
  br label %10

10:                                               ; preds = %7, %1
  ret void
}

; Function Attrs: mustprogress nounwind uwtable
define linkonce_odr hidden void @_ZN4llvm11SmallVectorItLj4EED2Ev(ptr noundef nonnull align 8 dereferenceable(32) %0) unnamed_addr #0 comdat align 2 {
  %2 = alloca ptr, align 8
  store ptr %0, ptr %2, align 8
  %3 = load ptr, ptr %2, align 8
  %4 = call noundef ptr @_ZN4llvm25SmallVectorTemplateCommonItvE5beginEv(ptr noundef nonnull align 8 dereferenceable(24) %3)
  %5 = call noundef ptr @_ZN4llvm25SmallVectorTemplateCommonItvE3endEv(ptr noundef nonnull align 8 dereferenceable(24) %3)
  call void @_ZN4llvm23SmallVectorTemplateBaseItLb1EE13destroy_rangeEPtS2_(ptr noundef %4, ptr noundef %5)
  call void @_ZN4llvm15SmallVectorImplItED2Ev(ptr noundef nonnull align 8 dereferenceable(24) %3) #13
  ret void
}

; Function Attrs: mustprogress nounwind uwtable
define linkonce_odr hidden void @_ZN4llvm18IntrusiveRefCntPtrINS_11ImutAVLTreeINS_16ImutKeyValueInfoIPKN5clang9NamedDeclEjEEEEED2Ev(ptr noundef nonnull align 8 dereferenceable(8) %0) unnamed_addr #0 comdat align 2 {
  %2 = alloca ptr, align 8
  store ptr %0, ptr %2, align 8
  %3 = load ptr, ptr %2, align 8
  call void @_ZN4llvm18IntrusiveRefCntPtrINS_11ImutAVLTreeINS_16ImutKeyValueInfoIPKN5clang9NamedDeclEjEEEEE7releaseEv(ptr noundef nonnull align 8 dereferenceable(8) %3)
  ret void
}

; Function Attrs: mustprogress nounwind uwtable
define internal void @_ZN12_GLOBAL__N_17FactSetD2Ev(ptr noundef nonnull align 8 dereferenceable(32) %0) unnamed_addr #0 align 2 {
  %2 = alloca ptr, align 8
  store ptr %0, ptr %2, align 8
  %3 = load ptr, ptr %2, align 8
  %4 = getelementptr inbounds nuw %"class.(anonymous namespace)::FactSet", ptr %3, i32 0, i32 0
  call void @_ZN4llvm11SmallVectorItLj4EED2Ev(ptr noundef nonnull align 8 dereferenceable(32) %4) #13
  ret void
}

; Function Attrs: mustprogress nounwind uwtable
define linkonce_odr hidden void @_ZN4llvm12ImmutableMapIPKN5clang9NamedDeclEjNS_16ImutKeyValueInfoIS4_jEEED2Ev(ptr noundef nonnull align 8 dereferenceable(8) %0) unnamed_addr #0 comdat align 2 {
  %2 = alloca ptr, align 8
  store ptr %0, ptr %2, align 8
  %3 = load ptr, ptr %2, align 8
  %4 = getelementptr inbounds nuw %"class.llvm::ImmutableMap", ptr %3, i32 0, i32 0
  call void @_ZN4llvm18IntrusiveRefCntPtrINS_11ImutAVLTreeINS_16ImutKeyValueInfoIPKN5clang9NamedDeclEjEEEEED2Ev(ptr noundef nonnull align 8 dereferenceable(8) %4) #13
  ret void
}

; Function Attrs: mustprogress nounwind uwtable
define internal void @_ZN12_GLOBAL__N_112CFGBlockInfoD2Ev(ptr noundef nonnull align 8 dereferenceable(93) %0) unnamed_addr #0 align 2 {
  %2 = alloca ptr, align 8
  store ptr %0, ptr %2, align 8
  %3 = load ptr, ptr %2, align 8
  %4 = getelementptr inbounds nuw %"struct.(anonymous namespace)::CFGBlockInfo", ptr %3, i32 0, i32 3
  call void @_ZN4llvm12ImmutableMapIPKN5clang9NamedDeclEjNS_16ImutKeyValueInfoIS4_jEEED2Ev(ptr noundef nonnull align 8 dereferenceable(8) %4) #13
  %5 = getelementptr inbounds nuw %"struct.(anonymous namespace)::CFGBlockInfo", ptr %3, i32 0, i32 2
  call void @_ZN4llvm12ImmutableMapIPKN5clang9NamedDeclEjNS_16ImutKeyValueInfoIS4_jEEED2Ev(ptr noundef nonnull align 8 dereferenceable(8) %5) #13
  %6 = getelementptr inbounds nuw %"struct.(anonymous namespace)::CFGBlockInfo", ptr %3, i32 0, i32 1
  call void @_ZN12_GLOBAL__N_17FactSetD2Ev(ptr noundef nonnull align 8 dereferenceable(32) %6) #13
  %7 = getelementptr inbounds nuw %"struct.(anonymous namespace)::CFGBlockInfo", ptr %3, i32 0, i32 0
  call void @_ZN12_GLOBAL__N_17FactSetD2Ev(ptr noundef nonnull align 8 dereferenceable(32) %7) #13
  ret void
}