; Function Attrs: mustprogress nounwind uwtable
define internal fastcc void @_ZN12_GLOBAL__N_112CFGBlockInfoD2Ev(ptr noundef nonnull align 8 dereferenceable(93) %0) unnamed_addr #1 align 2 {
  %2 = getelementptr inbounds nuw i8, ptr %0, i64 72
  %3 = load ptr, ptr %2, align 8
  %.not.i.i.i = icmp eq ptr %3, null
  br i1 %.not.i.i.i, label %_ZN4llvm12ImmutableMapIPKN5clang9NamedDeclEjNS_16ImutKeyValueInfoIS4_jEEED2Ev.exit, label %4

4:                                                ; preds = %1
  %5 = getelementptr inbounds nuw i8, ptr %3, i64 68
  %6 = load i32, ptr %5, align 4
  %7 = add i32 %6, -1
  store i32 %7, ptr %5, align 4
  %8 = icmp eq i32 %7, 0
  br i1 %8, label %9, label %_ZN4llvm12ImmutableMapIPKN5clang9NamedDeclEjNS_16ImutKeyValueInfoIS4_jEEED2Ev.exit

9:                                                ; preds = %4
  tail call void @_ZN4llvm11ImutAVLTreeINS_16ImutKeyValueInfoIPKN5clang9NamedDeclEjEEE7destroyEv(ptr noundef nonnull align 8 dereferenceable(72) %3)
  br label %_ZN4llvm12ImmutableMapIPKN5clang9NamedDeclEjNS_16ImutKeyValueInfoIS4_jEEED2Ev.exit

_ZN4llvm12ImmutableMapIPKN5clang9NamedDeclEjNS_16ImutKeyValueInfoIS4_jEEED2Ev.exit: ; preds = %1, %4, %9
  %10 = getelementptr inbounds nuw i8, ptr %0, i64 64
  %11 = load ptr, ptr %10, align 8
  %.not.i.i.i1 = icmp eq ptr %11, null
  br i1 %.not.i.i.i1, label %_ZN4llvm12ImmutableMapIPKN5clang9NamedDeclEjNS_16ImutKeyValueInfoIS4_jEEED2Ev.exit2, label %12

12:                                               ; preds = %_ZN4llvm12ImmutableMapIPKN5clang9NamedDeclEjNS_16ImutKeyValueInfoIS4_jEEED2Ev.exit
  %13 = getelementptr inbounds nuw i8, ptr %11, i64 68
  %14 = load i32, ptr %13, align 4
  %15 = add i32 %14, -1
  store i32 %15, ptr %13, align 4
  %16 = icmp eq i32 %15, 0
  br i1 %16, label %17, label %_ZN4llvm12ImmutableMapIPKN5clang9NamedDeclEjNS_16ImutKeyValueInfoIS4_jEEED2Ev.exit2

17:                                               ; preds = %12
  tail call void @_ZN4llvm11ImutAVLTreeINS_16ImutKeyValueInfoIPKN5clang9NamedDeclEjEEE7destroyEv(ptr noundef nonnull align 8 dereferenceable(72) %11)
  br label %_ZN4llvm12ImmutableMapIPKN5clang9NamedDeclEjNS_16ImutKeyValueInfoIS4_jEEED2Ev.exit2

_ZN4llvm12ImmutableMapIPKN5clang9NamedDeclEjNS_16ImutKeyValueInfoIS4_jEEED2Ev.exit2: ; preds = %_ZN4llvm12ImmutableMapIPKN5clang9NamedDeclEjNS_16ImutKeyValueInfoIS4_jEEED2Ev.exit, %12, %17
  %18 = getelementptr inbounds nuw i8, ptr %0, i64 32
  %19 = tail call noundef i64 @_ZNK4llvm15SmallVectorBaseImE4sizeEv(ptr noundef nonnull align 8 dereferenceable(32) %18) #18
  %20 = load ptr, ptr %18, align 8
  %21 = getelementptr inbounds nuw i8, ptr %0, i64 56
  %22 = icmp eq ptr %20, %21
  br i1 %22, label %_ZN12_GLOBAL__N_17FactSetD2Ev.exit, label %23

23:                                               ; preds = %_ZN4llvm12ImmutableMapIPKN5clang9NamedDeclEjNS_16ImutKeyValueInfoIS4_jEEED2Ev.exit2
  tail call void @free(ptr noundef %20) #18
  br label %_ZN12_GLOBAL__N_17FactSetD2Ev.exit

_ZN12_GLOBAL__N_17FactSetD2Ev.exit:               ; preds = %_ZN4llvm12ImmutableMapIPKN5clang9NamedDeclEjNS_16ImutKeyValueInfoIS4_jEEED2Ev.exit2, %23
  %24 = tail call noundef i64 @_ZNK4llvm15SmallVectorBaseImE4sizeEv(ptr noundef nonnull align 8 dereferenceable(32) %0) #18
  %25 = load ptr, ptr %0, align 8
  %26 = getelementptr inbounds nuw i8, ptr %0, i64 24
  %27 = icmp eq ptr %25, %26
  br i1 %27, label %_ZN12_GLOBAL__N_17FactSetD2Ev.exit3, label %28

28:                                               ; preds = %_ZN12_GLOBAL__N_17FactSetD2Ev.exit
  tail call void @free(ptr noundef %25) #18
  br label %_ZN12_GLOBAL__N_17FactSetD2Ev.exit3

_ZN12_GLOBAL__N_17FactSetD2Ev.exit3:              ; preds = %_ZN12_GLOBAL__N_17FactSetD2Ev.exit, %28
  ret void
}